target datalayout = "e-m:e-p270:32:32-p271:32:32-p272:64:64-i64:64-i128:128-f80:128-n8:16:32:64-S128"
target triple = "x86_64-pc-linux-gnu"

%"class.(anonymous namespace)::tactic2solver" = type <{ %class.solver_na2as, %class.ref_vector, %class.ref_vector, i32, [4 x i8], %class.svector, %class.ref.1, %class.ref.2, %class.ref, %class.symbol, i8, i8, i8, [5 x i8], %class.statistics, i8, [7 x i8] }>
%class.solver_na2as = type { %class.solver, %class.ref_vector, %class.svector }
%class.solver = type { %class.check_sat_result, %"class.user_propagator::core", %class.params_ref, %class.symbol }
%class.check_sat_result = type { ptr, ptr, %class.ref_vector, %class.obj_ref, i32, i32, %class.ref, double }
%class.obj_ref = type { ptr, ptr }
%"class.user_propagator::core" = type { ptr }
%class.params_ref = type { ptr }
%class.ref_vector = type { %class.ref_vector_core }
%class.ref_vector_core = type { %class.ref_manager_wrapper, %class.ptr_vector }
%class.ref_manager_wrapper = type { ptr }
%class.ptr_vector = type { %class.vector }
%class.vector = type { ptr }
%class.svector = type { %class.vector.0 }
%class.vector.0 = type { ptr }
%class.ref.1 = type { ptr }
%class.ref.2 = type { ptr }
%class.ref = type { ptr }
%class.symbol = type { ptr }
%class.statistics = type { %class.svector.3, %class.svector.5 }
%class.svector.3 = type { %class.vector.4 }
%class.vector.4 = type { ptr }
%class.svector.5 = type { %class.vector.6 }
%class.vector.6 = type { ptr }
%class.converter = type <{ ptr, i32, [4 x i8] }>

; Function Attrs: mustprogress nounwind uwtable
define linkonce_odr hidden void @_ZN9converter7inc_refEv(ptr noundef nonnull align 8 dereferenceable(12) %0) #5 comdat align 2 {
  %2 = alloca ptr, align 8
  store ptr %0, ptr %2, align 8, !tbaa !158
  %3 = load ptr, ptr %2, align 8
  %4 = getelementptr inbounds nuw %class.converter, ptr %3, i32 0, i32 1
  %5 = load i32, ptr %4, align 8, !tbaa !160
  %6 = add i32 %5, 1
  store i32 %6, ptr %4, align 8, !tbaa !160
  ret void
}

; Function Attrs: mustprogress uwtable
define linkonce_odr hidden void @_ZN3refI15model_converterE7inc_refEv(ptr noundef nonnull align 8 dereferenceable(8) %0) #4 comdat align 2 {
  %2 = alloca ptr, align 8
  store ptr %0, ptr %2, align 8, !tbaa !83
  %3 = load ptr, ptr %2, align 8
  %4 = getelementptr inbounds nuw %class.ref, ptr %3, i32 0, i32 0
  %5 = load ptr, ptr %4, align 8, !tbaa !85
  %6 = icmp ne ptr %5, null
  br i1 %6, label %7, label %10

7:                                                ; preds = %1
  %8 = getelementptr inbounds nuw %class.ref, ptr %3, i32 0, i32 0
  %9 = load ptr, ptr %8, align 8, !tbaa !85
  call void @_ZN9converter7inc_refEv(ptr noundef nonnull align 8 dereferenceable(12) %9)
  br label %10

10:                                               ; preds = %7, %1
  ret void
}

; Function Attrs: mustprogress uwtable
define linkonce_odr hidden void @_ZN3refI15model_converterEC2ERKS1_(ptr noundef nonnull align 8 dereferenceable(8) %0, ptr noundef nonnull align 8 dereferenceable(8) %1) unnamed_addr #4 comdat align 2 {
  %3 = alloca ptr, align 8
  %4 = alloca ptr, align 8
  store ptr %0, ptr %3, align 8, !tbaa !83
  store ptr %1, ptr %4, align 8, !tbaa !83
  %5 = load ptr, ptr %3, align 8
  %6 = getelementptr inbounds nuw %class.ref, ptr %5, i32 0, i32 0
  %7 = load ptr, ptr %4, align 8, !tbaa !83
  %8 = getelementptr inbounds nuw %class.ref, ptr %7, i32 0, i32 0
  %9 = load ptr, ptr %8, align 8, !tbaa !85
  store ptr %9, ptr %6, align 8, !tbaa !85
  call void @_ZN3refI15model_converterE7inc_refEv(ptr noundef nonnull align 8 dereferenceable(8) %5)
  ret void
}

; Function Attrs: mustprogress uwtable
define internal void @_ZNK12_GLOBAL__N_113tactic2solver19get_model_converterEv(ptr dead_on_unwind noalias writable sret(%class.ref) align 8 %0, ptr noundef nonnull align 8 dereferenceable(225) %1) unnamed_addr #4 align 2 {
  %3 = alloca ptr, align 8
  %4 = alloca ptr, align 8
  store ptr %0, ptr %3, align 8
  store ptr %1, ptr %4, align 8, !tbaa !18
  %5 = load ptr, ptr %4, align 8
  %6 = getelementptr inbounds nuw %"class.(anonymous namespace)::tactic2solver", ptr %5, i32 0, i32 8
  call void @_ZN3refI15model_converterEC2ERKS1_(ptr noundef nonnull align 8 dereferenceable(8) %0, ptr noundef nonnull align 8 dereferenceable(8) %6)
  ret void
}