; Function Attrs: mustprogress nofree norecurse nosync nounwind willreturn memory(readwrite, inaccessiblemem: none) uwtable
define internal void @_ZNK12_GLOBAL__N_113tactic2solver19get_model_converterEv(ptr dead_on_unwind noalias writable writeonly sret(%class.ref) align 8 captures(none) initializes((0, 8)) %0, ptr noundef nonnull readonly align 8 captures(none) dereferenceable(225) %1) unnamed_addr #11 align 2 {
  %3 = getelementptr inbounds nuw i8, ptr %1, i64 184
  %4 = load ptr, ptr %3, align 8, !tbaa !62
  store ptr %4, ptr %0, align 8, !tbaa !62
  %.not.i.i = icmp eq ptr %4, null
  br i1 %.not.i.i, label %_ZN3refI15model_converterEC2ERKS1_.exit, label %5

5:                                                ; preds = %2
  %6 = getelementptr inbounds nuw i8, ptr %4, i64 8
  %7 = load i32, ptr %6, align 8, !tbaa !63
  %8 = add i32 %7, 1
  store i32 %8, ptr %6, align 8, !tbaa !63
  br label %_ZN3refI15model_converterEC2ERKS1_.exit

_ZN3refI15model_converterEC2ERKS1_.exit:          ; preds = %2, %5
  ret void
}